; Function Attrs: nounwind uwtable
define void @Res_SimFree(ptr noundef %0) local_unnamed_addr #4 {
  %2 = getelementptr inbounds nuw i8, ptr %0, i64 48
  %3 = load ptr, ptr %2, align 8, !tbaa !26
  %4 = getelementptr inbounds nuw i8, ptr %3, i64 8
  %5 = load ptr, ptr %4, align 8, !tbaa !25
  %.not.i = icmp eq ptr %5, null
  br i1 %.not.i, label %Vec_PtrFree.exit, label %6

6:                                                ; preds = %1
  tail call void @free(ptr noundef nonnull %5) #15
  br label %Vec_PtrFree.exit

Vec_PtrFree.exit:                                 ; preds = %1, %6
  tail call void @free(ptr noundef nonnull %3) #15
  %7 = getelementptr inbounds nuw i8, ptr %0, i64 56
  %8 = load ptr, ptr %7, align 8, !tbaa !27
  %9 = getelementptr inbounds nuw i8, ptr %8, i64 8
  %10 = load ptr, ptr %9, align 8, !tbaa !25
  %.not.i7 = icmp eq ptr %10, null
  br i1 %.not.i7, label %Vec_PtrFree.exit8, label %11

11:                                               ; preds = %Vec_PtrFree.exit
  tail call void @free(ptr noundef nonnull %10) #15
  br label %Vec_PtrFree.exit8

Vec_PtrFree.exit8:                                ; preds = %Vec_PtrFree.exit, %11
  tail call void @free(ptr noundef nonnull %8) #15
  %12 = getelementptr inbounds nuw i8, ptr %0, i64 64
  %13 = load ptr, ptr %12, align 8, !tbaa !28
  %14 = getelementptr inbounds nuw i8, ptr %13, i64 8
  %15 = load ptr, ptr %14, align 8, !tbaa !25
  %.not.i9 = icmp eq ptr %15, null
  br i1 %.not.i9, label %Vec_PtrFree.exit10, label %16

16:                                               ; preds = %Vec_PtrFree.exit8
  tail call void @free(ptr noundef nonnull %15) #15
  br label %Vec_PtrFree.exit10

Vec_PtrFree.exit10:                               ; preds = %Vec_PtrFree.exit8, %16
  tail call void @free(ptr noundef nonnull %13) #15
  %17 = getelementptr inbounds nuw i8, ptr %0, i64 72
  %18 = load ptr, ptr %17, align 8, !tbaa !29
  %19 = getelementptr inbounds nuw i8, ptr %18, i64 8
  %20 = load ptr, ptr %19, align 8, !tbaa !25
  %.not.i11 = icmp eq ptr %20, null
  br i1 %.not.i11, label %Vec_PtrFree.exit12, label %21

21:                                               ; preds = %Vec_PtrFree.exit10
  tail call void @free(ptr noundef nonnull %20) #15
  br label %Vec_PtrFree.exit12

Vec_PtrFree.exit12:                               ; preds = %Vec_PtrFree.exit10, %21
  tail call void @free(ptr noundef nonnull %18) #15
  %22 = getelementptr inbounds nuw i8, ptr %0, i64 88
  %23 = load ptr, ptr %22, align 8, !tbaa !35
  %24 = getelementptr i8, ptr %23, i64 4
  %.val11.i = load i32, ptr %24, align 4, !tbaa !34
  %25 = icmp sgt i32 %.val11.i, 0
  br i1 %25, label %.lr.ph.i, label %.critedge.i

.lr.ph.i:                                         ; preds = %Vec_PtrFree.exit12
  %26 = getelementptr i8, ptr %23, i64 8
  br label %27

27:                                               ; preds = %34, %.lr.ph.i
  %.val14.i = phi i32 [ %.val11.i, %.lr.ph.i ], [ %.val.i, %34 ]
  %indvars.iv.i = phi i64 [ 0, %.lr.ph.i ], [ %indvars.iv.next.i, %34 ]
  %.val8.i = load ptr, ptr %26, align 8, !tbaa !32
  %28 = getelementptr inbounds nuw ptr, ptr %.val8.i, i64 %indvars.iv.i
  %29 = load ptr, ptr %28, align 8, !tbaa !19
  %.not.i13 = icmp eq ptr %29, null
  br i1 %.not.i13, label %34, label %30

30:                                               ; preds = %27
  %31 = getelementptr inbounds nuw i8, ptr %29, i64 8
  %32 = load ptr, ptr %31, align 8, !tbaa !25
  %.not.i.i = icmp eq ptr %32, null
  br i1 %.not.i.i, label %Vec_PtrFree.exit.i, label %33

33:                                               ; preds = %30
  tail call void @free(ptr noundef nonnull %32) #15
  br label %Vec_PtrFree.exit.i

Vec_PtrFree.exit.i:                               ; preds = %33, %30
  tail call void @free(ptr noundef nonnull %29) #15
  %.val.pre.i = load i32, ptr %24, align 4, !tbaa !34
  br label %34

34:                                               ; preds = %Vec_PtrFree.exit.i, %27
  %.val.i = phi i32 [ %.val14.i, %27 ], [ %.val.pre.i, %Vec_PtrFree.exit.i ]
  %indvars.iv.next.i = add nuw nsw i64 %indvars.iv.i, 1
  %35 = sext i32 %.val.i to i64
  %36 = icmp slt i64 %indvars.iv.next.i, %35
  br i1 %36, label %27, label %.critedge.i, !llvm.loop !58

.critedge.i:                                      ; preds = %34, %Vec_PtrFree.exit12
  %37 = getelementptr inbounds nuw i8, ptr %23, i64 8
  %38 = load ptr, ptr %37, align 8, !tbaa !25
  %.not.i9.i = icmp eq ptr %38, null
  br i1 %.not.i9.i, label %Vec_VecFree.exit, label %39

39:                                               ; preds = %.critedge.i
  tail call void @free(ptr noundef nonnull %38) #15
  br label %Vec_VecFree.exit

Vec_VecFree.exit:                                 ; preds = %.critedge.i, %39
  tail call void @free(ptr noundef nonnull %23) #15
  %.not = icmp eq ptr %0, null
  br i1 %.not, label %41, label %40

40:                                               ; preds = %Vec_VecFree.exit
  tail call void @free(ptr noundef nonnull %0) #15
  br label %41

41:                                               ; preds = %Vec_VecFree.exit, %40
  ret void
}